target datalayout = "e-m:e-p270:32:32-p271:32:32-p272:64:64-i64:64-i128:128-f80:128-n8:16:32:64-S128"
target triple = "x86_64-unknown-linux-gnu"

%struct.HIDState = type { %union.anon, i32, i32, i32, i32, i8, i8, ptr, ptr, ptr }
%union.anon = type { %struct.HIDMouseState }
%struct.HIDMouseState = type { [16 x %struct.HIDPointerEvent], i32 }
%struct.HIDPointerEvent = type { i32, i32, i32, i32 }
%struct.HIDKeyboardState = type { [16 x i32], i16, i8, [16 x i8], i32 }
%struct.timeval = type { i64, i64 }
%struct.InputEvent = type { i32, %union.anon.0 }
%union.anon.0 = type { %struct.InputKeyEventWrapper }
%struct.InputKeyEventWrapper = type { ptr }
%struct.InputKeyEvent = type { ptr, i8 }

@trace_events_enabled_count = external global i32, align 4
@message_with_timestamp = external global i8, align 1
@qemu_loglevel = external global i32, align 4
@_TRACE_HID_KBD_QUEUE_FULL_DSTATE = external global i16, align 2
@.str.19 = private unnamed_addr constant [44 x i8] c"%d@%zu.%06zu:hid_kbd_queue_full queue full\0A\00", align 1
@.str.20 = private unnamed_addr constant [31 x i8] c"hid_kbd_queue_full queue full\0A\00", align 1

; Function Attrs: nounwind sspstrong uwtable
define internal zeroext i1 @qemu_loglevel_mask(i32 noundef %mask) #0 {
entry:
  %mask.addr = alloca i32, align 4
  store i32 %mask, ptr %mask.addr, align 4
  %0 = load i32, ptr @qemu_loglevel, align 4
  %1 = load i32, ptr %mask.addr, align 4
  %and = and i32 %0, %1
  %cmp = icmp ne i32 %and, 0
  ret i1 %cmp
}

; Function Attrs: nounwind sspstrong uwtable
define internal void @_nocheck__trace_hid_kbd_queue_full() #0 {
entry:
  %_now = alloca %struct.timeval, align 8
  %0 = load i32, ptr @trace_events_enabled_count, align 4
  %tobool = icmp ne i32 %0, 0
  %lnot = xor i1 %tobool, true
  %lnot1 = xor i1 %lnot, true
  %lnot.ext = zext i1 %lnot1 to i32
  %conv = sext i32 %lnot.ext to i64
  %tobool2 = icmp ne i64 %conv, 0
  br i1 %tobool2, label %land.lhs.true, label %if.end11

land.lhs.true:                                    ; preds = %entry
  %1 = load i16, ptr @_TRACE_HID_KBD_QUEUE_FULL_DSTATE, align 2
  %conv3 = zext i16 %1 to i32
  %tobool4 = icmp ne i32 %conv3, 0
  br i1 %tobool4, label %land.lhs.true5, label %if.end11

land.lhs.true5:                                   ; preds = %land.lhs.true
  %call = call zeroext i1 @qemu_loglevel_mask(i32 noundef 32768)
  br i1 %call, label %if.then, label %if.end11

if.then:                                          ; preds = %land.lhs.true5
  %2 = load i8, ptr @message_with_timestamp, align 1
  %tobool7 = trunc i8 %2 to i1
  br i1 %tobool7, label %if.then8, label %if.else

if.then8:                                         ; preds = %if.then
  %call9 = call i32 @gettimeofday(ptr noundef %_now, ptr noundef null) #9
  %call10 = call i32 @qemu_get_thread_id()
  %tv_sec = getelementptr inbounds %struct.timeval, ptr %_now, i32 0, i32 0
  %3 = load i64, ptr %tv_sec, align 8
  %tv_usec = getelementptr inbounds %struct.timeval, ptr %_now, i32 0, i32 1
  %4 = load i64, ptr %tv_usec, align 8
  call void (ptr, ...) @qemu_log(ptr noundef @.str.19, i32 noundef %call10, i64 noundef %3, i64 noundef %4)
  br label %if.end

if.else:                                          ; preds = %if.then
  call void (ptr, ...) @qemu_log(ptr noundef @.str.20)
  br label %if.end

if.end:                                           ; preds = %if.else, %if.then8
  br label %if.end11

if.end11:                                         ; preds = %if.end, %land.lhs.true5, %land.lhs.true, %entry
  ret void
}

; Function Attrs: nounwind sspstrong uwtable
define internal void @trace_hid_kbd_queue_full() #0 {
entry:
  call void @_nocheck__trace_hid_kbd_queue_full()
  ret void
}

; Function Attrs: nounwind sspstrong uwtable
define internal void @hid_keyboard_event(ptr noundef %dev, ptr noundef %src, ptr noundef %evt) #0 {
entry:
  %dev.addr = alloca ptr, align 8
  %src.addr = alloca ptr, align 8
  %evt.addr = alloca ptr, align 8
  %hs = alloca ptr, align 8
  %scancodes = alloca [3 x i32], align 4
  %i = alloca i32, align 4
  %count = alloca i32, align 4
  %slot = alloca i32, align 4
  %key = alloca ptr, align 8
  store ptr %dev, ptr %dev.addr, align 8
  store ptr %src, ptr %src.addr, align 8
  store ptr %evt, ptr %evt.addr, align 8
  %0 = load ptr, ptr %dev.addr, align 8
  store ptr %0, ptr %hs, align 8
  %1 = load ptr, ptr %evt.addr, align 8
  %u = getelementptr inbounds %struct.InputEvent, ptr %1, i32 0, i32 1
  %data = getelementptr inbounds %struct.InputKeyEventWrapper, ptr %u, i32 0, i32 0
  %2 = load ptr, ptr %data, align 8
  store ptr %2, ptr %key, align 8
  %3 = load ptr, ptr %key, align 8
  %key1 = getelementptr inbounds %struct.InputKeyEvent, ptr %3, i32 0, i32 0
  %4 = load ptr, ptr %key1, align 8
  %5 = load ptr, ptr %key, align 8
  %down = getelementptr inbounds %struct.InputKeyEvent, ptr %5, i32 0, i32 1
  %6 = load i8, ptr %down, align 8
  %tobool = trunc i8 %6 to i1
  %arraydecay = getelementptr inbounds [3 x i32], ptr %scancodes, i64 0, i64 0
  %call = call i32 @qemu_input_key_value_to_scancode(ptr noundef %4, i1 noundef zeroext %tobool, ptr noundef %arraydecay)
  store i32 %call, ptr %count, align 4
  %7 = load ptr, ptr %hs, align 8
  %n = getelementptr inbounds %struct.HIDState, ptr %7, i32 0, i32 2
  %8 = load i32, ptr %n, align 8
  %9 = load i32, ptr %count, align 4
  %add = add i32 %8, %9
  %cmp = icmp ugt i32 %add, 16
  br i1 %cmp, label %if.then, label %if.end

if.then:                                          ; preds = %entry
  call void @trace_hid_kbd_queue_full()
  br label %return

if.end:                                           ; preds = %entry
  store i32 0, ptr %i, align 4
  br label %for.cond

for.cond:                                         ; preds = %for.inc, %if.end
  %10 = load i32, ptr %i, align 4
  %11 = load i32, ptr %count, align 4
  %cmp2 = icmp slt i32 %10, %11
  br i1 %cmp2, label %for.body, label %for.end

for.body:                                         ; preds = %for.cond
  %12 = load ptr, ptr %hs, align 8
  %head = getelementptr inbounds %struct.HIDState, ptr %12, i32 0, i32 1
  %13 = load i32, ptr %head, align 4
  %14 = load ptr, ptr %hs, align 8
  %n3 = getelementptr inbounds %struct.HIDState, ptr %14, i32 0, i32 2
  %15 = load i32, ptr %n3, align 8
  %add4 = add i32 %13, %15
  %and = and i32 %add4, 15
  store i32 %and, ptr %slot, align 4
  %16 = load ptr, ptr %hs, align 8
  %n5 = getelementptr inbounds %struct.HIDState, ptr %16, i32 0, i32 2
  %17 = load i32, ptr %n5, align 8
  %inc = add i32 %17, 1
  store i32 %inc, ptr %n5, align 8
  %18 = load i32, ptr %i, align 4
  %idxprom = sext i32 %18 to i64
  %arrayidx = getelementptr [3 x i32], ptr %scancodes, i64 0, i64 %idxprom
  %19 = load i32, ptr %arrayidx, align 4
  %20 = load ptr, ptr %hs, align 8
  %21 = getelementptr inbounds %struct.HIDState, ptr %20, i32 0, i32 0
  %keycodes = getelementptr inbounds %struct.HIDKeyboardState, ptr %21, i32 0, i32 0
  %22 = load i32, ptr %slot, align 4
  %idxprom6 = sext i32 %22 to i64
  %arrayidx7 = getelementptr [16 x i32], ptr %keycodes, i64 0, i64 %idxprom6
  store i32 %19, ptr %arrayidx7, align 4
  br label %for.inc

for.inc:                                          ; preds = %for.body
  %23 = load i32, ptr %i, align 4
  %inc8 = add i32 %23, 1
  store i32 %inc8, ptr %i, align 4
  br label %for.cond, !llvm.loop !8

for.end:                                          ; preds = %for.cond
  %24 = load ptr, ptr %hs, align 8
  %event = getelementptr inbounds %struct.HIDState, ptr %24, i32 0, i32 8
  %25 = load ptr, ptr %event, align 8
  %26 = load ptr, ptr %hs, align 8
  call void %25(ptr noundef %26)
  br label %return

return:                                           ; preds = %for.end, %if.then
  ret void
}