; Function Attrs: nounwind sspstrong uwtable
define internal void @hid_keyboard_event(ptr noundef %dev, ptr readnone captures(none) %src, ptr noundef readonly captures(none) %evt) #1 {
entry:
  %_now.i.i = alloca %struct.timeval, align 8
  %scancodes = alloca [3 x i32], align 4
  %u = getelementptr inbounds nuw i8, ptr %evt, i64 8
  %0 = load ptr, ptr %u, align 8
  %1 = load ptr, ptr %0, align 8
  %down = getelementptr inbounds nuw i8, ptr %0, i64 8
  %2 = load i8, ptr %down, align 8
  %tobool = trunc i8 %2 to i1
  %call = call i32 @qemu_input_key_value_to_scancode(ptr noundef %1, i1 noundef zeroext %tobool, ptr noundef nonnull %scancodes) #11
  %n = getelementptr inbounds nuw i8, ptr %dev, i64 264
  %3 = load i32, ptr %n, align 8
  %add = add i32 %3, %call
  %cmp = icmp ugt i32 %add, 16
  br i1 %cmp, label %if.then, label %for.cond.preheader

for.cond.preheader:                               ; preds = %entry
  %cmp211 = icmp sgt i32 %call, 0
  br i1 %cmp211, label %for.body.lr.ph, label %for.end

for.body.lr.ph:                                   ; preds = %for.cond.preheader
  %head = getelementptr inbounds nuw i8, ptr %dev, i64 260
  %4 = load i32, ptr %head, align 4
  %wide.trip.count = zext nneg i32 %call to i64
  br label %for.body

if.then:                                          ; preds = %entry
  call void @llvm.lifetime.start.p0(i64 16, ptr nonnull %_now.i.i)
  %5 = load i32, ptr @trace_events_enabled_count, align 4
  %tobool.i.i = icmp ne i32 %5, 0
  %6 = load i16, ptr @_TRACE_HID_KBD_QUEUE_FULL_DSTATE, align 2
  %tobool4.i.i = icmp ne i16 %6, 0
  %or.cond.i.i = select i1 %tobool.i.i, i1 %tobool4.i.i, i1 false
  br i1 %or.cond.i.i, label %land.lhs.true5.i.i, label %trace_hid_kbd_queue_full.exit

land.lhs.true5.i.i:                               ; preds = %if.then
  %7 = load i32, ptr @qemu_loglevel, align 4
  %and.i.i.i = and i32 %7, 32768
  %cmp.i.not.i.i = icmp eq i32 %and.i.i.i, 0
  br i1 %cmp.i.not.i.i, label %trace_hid_kbd_queue_full.exit, label %if.then.i.i

if.then.i.i:                                      ; preds = %land.lhs.true5.i.i
  %8 = load i8, ptr @message_with_timestamp, align 1
  %tobool7.i.i = trunc i8 %8 to i1
  br i1 %tobool7.i.i, label %if.then8.i.i, label %if.else.i.i

if.then8.i.i:                                     ; preds = %if.then.i.i
  %call9.i.i = call i32 @gettimeofday(ptr noundef nonnull %_now.i.i, ptr noundef null) #11
  %call10.i.i = call i32 @qemu_get_thread_id() #11
  %9 = load i64, ptr %_now.i.i, align 8
  %tv_usec.i.i = getelementptr inbounds nuw i8, ptr %_now.i.i, i64 8
  %10 = load i64, ptr %tv_usec.i.i, align 8
  call void (ptr, ...) @qemu_log(ptr noundef nonnull @.str.19, i32 noundef %call10.i.i, i64 noundef %9, i64 noundef %10) #11
  br label %trace_hid_kbd_queue_full.exit

if.else.i.i:                                      ; preds = %if.then.i.i
  call void (ptr, ...) @qemu_log(ptr noundef nonnull @.str.20) #11
  br label %trace_hid_kbd_queue_full.exit

trace_hid_kbd_queue_full.exit:                    ; preds = %if.then, %land.lhs.true5.i.i, %if.then8.i.i, %if.else.i.i
  call void @llvm.lifetime.end.p0(i64 16, ptr nonnull %_now.i.i)
  br label %return

for.body:                                         ; preds = %for.body.lr.ph, %for.body
  %indvars.iv = phi i64 [ 0, %for.body.lr.ph ], [ %indvars.iv.next, %for.body ]
  %11 = phi i32 [ %3, %for.body.lr.ph ], [ %inc, %for.body ]
  %add4 = add i32 %11, %4
  %and = and i32 %add4, 15
  %inc = add i32 %11, 1
  %arrayidx = getelementptr [3 x i32], ptr %scancodes, i64 0, i64 %indvars.iv
  %12 = load i32, ptr %arrayidx, align 4
  %idxprom6 = zext nneg i32 %and to i64
  %arrayidx7 = getelementptr [16 x i32], ptr %dev, i64 0, i64 %idxprom6
  store i32 %12, ptr %arrayidx7, align 4
  %indvars.iv.next = add nuw nsw i64 %indvars.iv, 1
  %exitcond.not = icmp eq i64 %indvars.iv.next, %wide.trip.count
  br i1 %exitcond.not, label %for.cond.for.end_crit_edge, label %for.body, !llvm.loop !8

for.cond.for.end_crit_edge:                       ; preds = %for.body
  store i32 %inc, ptr %n, align 8
  br label %for.end

for.end:                                          ; preds = %for.cond.for.end_crit_edge, %for.cond.preheader
  %event = getelementptr inbounds nuw i8, ptr %dev, i64 288
  %13 = load ptr, ptr %event, align 8
  call void %13(ptr noundef nonnull %dev) #11
  br label %return

return:                                           ; preds = %for.end, %trace_hid_kbd_queue_full.exit
  ret void
}